target datalayout = "e-m:e-p270:32:32-p271:32:32-p272:64:64-i64:64-i128:128-f80:128-n8:16:32:64-S128"
target triple = "x86_64-pc-linux-gnu"

@sane_ctype = external constant [256 x i8], align 16
@.str.21 = private unnamed_addr constant [6 x i8] c"From \00", align 1

; Function Attrs: nounwind uwtable
define internal i32 @is_from_line(ptr noundef %0, i32 noundef %1) #0 {
  %3 = alloca i32, align 4
  %4 = alloca ptr, align 8
  %5 = alloca i32, align 4
  %6 = alloca ptr, align 8
  %7 = alloca i32, align 4
  store ptr %0, ptr %4, align 8, !tbaa !11
  store i32 %1, ptr %5, align 4, !tbaa !4
  call void @llvm.lifetime.start.p0(i64 8, ptr %6) #11
  %8 = load i32, ptr %5, align 4, !tbaa !4
  %9 = icmp slt i32 %8, 20
  br i1 %9, label %14, label %10

10:                                               ; preds = %2
  %11 = load ptr, ptr %4, align 8, !tbaa !11
  %12 = call i32 @memcmp(ptr noundef @.str.21, ptr noundef %11, i64 noundef 5) #13
  %13 = icmp ne i32 %12, 0
  br i1 %13, label %14, label %15

14:                                               ; preds = %10, %2
  store i32 0, ptr %3, align 4
  store i32 1, ptr %7, align 4
  br label %94

15:                                               ; preds = %10
  %16 = load ptr, ptr %4, align 8, !tbaa !11
  %17 = load i32, ptr %5, align 4, !tbaa !4
  %18 = sext i32 %17 to i64
  %19 = getelementptr inbounds i8, ptr %16, i64 %18
  %20 = getelementptr inbounds i8, ptr %19, i64 -2
  store ptr %20, ptr %6, align 8, !tbaa !11
  %21 = load ptr, ptr %4, align 8, !tbaa !11
  %22 = getelementptr inbounds i8, ptr %21, i64 5
  store ptr %22, ptr %4, align 8, !tbaa !11
  br label %23

23:                                               ; preds = %35, %15
  %24 = load ptr, ptr %6, align 8, !tbaa !11
  %25 = load ptr, ptr %4, align 8, !tbaa !11
  %26 = icmp ult ptr %24, %25
  br i1 %26, label %27, label %28

27:                                               ; preds = %23
  store i32 0, ptr %3, align 4
  store i32 1, ptr %7, align 4
  br label %94

28:                                               ; preds = %23
  %29 = load ptr, ptr %6, align 8, !tbaa !11
  %30 = getelementptr inbounds i8, ptr %29, i32 -1
  store ptr %30, ptr %6, align 8, !tbaa !11
  %31 = load i8, ptr %30, align 1, !tbaa !15
  %32 = sext i8 %31 to i32
  %33 = icmp eq i32 %32, 58
  br i1 %33, label %34, label %35

34:                                               ; preds = %28
  br label %36

35:                                               ; preds = %28
  br label %23

36:                                               ; preds = %34
  %37 = load ptr, ptr %6, align 8, !tbaa !11
  %38 = getelementptr inbounds i8, ptr %37, i64 -4
  %39 = load i8, ptr %38, align 1, !tbaa !15
  %40 = zext i8 %39 to i64
  %41 = getelementptr inbounds nuw [256 x i8], ptr @sane_ctype, i64 0, i64 %40
  %42 = load i8, ptr %41, align 1, !tbaa !15
  %43 = zext i8 %42 to i32
  %44 = and i32 %43, 2
  %45 = icmp ne i32 %44, 0
  br i1 %45, label %46, label %86

46:                                               ; preds = %36
  %47 = load ptr, ptr %6, align 8, !tbaa !11
  %48 = getelementptr inbounds i8, ptr %47, i64 -2
  %49 = load i8, ptr %48, align 1, !tbaa !15
  %50 = zext i8 %49 to i64
  %51 = getelementptr inbounds nuw [256 x i8], ptr @sane_ctype, i64 0, i64 %50
  %52 = load i8, ptr %51, align 1, !tbaa !15
  %53 = zext i8 %52 to i32
  %54 = and i32 %53, 2
  %55 = icmp ne i32 %54, 0
  br i1 %55, label %56, label %86

56:                                               ; preds = %46
  %57 = load ptr, ptr %6, align 8, !tbaa !11
  %58 = getelementptr inbounds i8, ptr %57, i64 -1
  %59 = load i8, ptr %58, align 1, !tbaa !15
  %60 = zext i8 %59 to i64
  %61 = getelementptr inbounds nuw [256 x i8], ptr @sane_ctype, i64 0, i64 %60
  %62 = load i8, ptr %61, align 1, !tbaa !15
  %63 = zext i8 %62 to i32
  %64 = and i32 %63, 2
  %65 = icmp ne i32 %64, 0
  br i1 %65, label %66, label %86

66:                                               ; preds = %56
  %67 = load ptr, ptr %6, align 8, !tbaa !11
  %68 = getelementptr inbounds i8, ptr %67, i64 1
  %69 = load i8, ptr %68, align 1, !tbaa !15
  %70 = zext i8 %69 to i64
  %71 = getelementptr inbounds nuw [256 x i8], ptr @sane_ctype, i64 0, i64 %70
  %72 = load i8, ptr %71, align 1, !tbaa !15
  %73 = zext i8 %72 to i32
  %74 = and i32 %73, 2
  %75 = icmp ne i32 %74, 0
  br i1 %75, label %76, label %86

76:                                               ; preds = %66
  %77 = load ptr, ptr %6, align 8, !tbaa !11
  %78 = getelementptr inbounds i8, ptr %77, i64 2
  %79 = load i8, ptr %78, align 1, !tbaa !15
  %80 = zext i8 %79 to i64
  %81 = getelementptr inbounds nuw [256 x i8], ptr @sane_ctype, i64 0, i64 %80
  %82 = load i8, ptr %81, align 1, !tbaa !15
  %83 = zext i8 %82 to i32
  %84 = and i32 %83, 2
  %85 = icmp ne i32 %84, 0
  br i1 %85, label %87, label %86

86:                                               ; preds = %76, %66, %56, %46, %36
  store i32 0, ptr %3, align 4
  store i32 1, ptr %7, align 4
  br label %94

87:                                               ; preds = %76
  %88 = load ptr, ptr %6, align 8, !tbaa !11
  %89 = getelementptr inbounds i8, ptr %88, i64 3
  %90 = call i64 @strtol(ptr noundef %89, ptr noundef null, i32 noundef 10) #11
  %91 = icmp sle i64 %90, 90
  br i1 %91, label %92, label %93

92:                                               ; preds = %87
  store i32 0, ptr %3, align 4
  store i32 1, ptr %7, align 4
  br label %94

93:                                               ; preds = %87
  store i32 1, ptr %3, align 4
  store i32 1, ptr %7, align 4
  br label %94

94:                                               ; preds = %93, %92, %86, %27, %14
  call void @llvm.lifetime.end.p0(i64 8, ptr %6) #11
  %95 = load i32, ptr %3, align 4
  ret i32 %95
}