; Function Attrs: nofree nounwind uwtable
define internal fastcc range(i32 0, 2) i32 @is_from_line(ptr noundef readonly captures(none) %0, i32 noundef %1) unnamed_addr #9 {
  %3 = icmp slt i32 %1, 20
  br i1 %3, label %.loopexit, label %4

4:                                                ; preds = %2
  %bcmp = tail call i32 @bcmp(ptr noundef nonnull dereferenceable(5) @.str.21, ptr noundef nonnull dereferenceable(5) %0, i64 5)
  %.not = icmp eq i32 %bcmp, 0
  br i1 %.not, label %5, label %.loopexit

5:                                                ; preds = %4
  %6 = zext nneg i32 %1 to i64
  %.add = add nsw i64 %6, -2
  br label %7

7:                                                ; preds = %9, %5
  %.0.idx = phi i64 [ %.add, %5 ], [ %.0.add, %9 ]
  %8 = icmp slt i64 %.0.idx, 5
  br i1 %8, label %.loopexit, label %9

9:                                                ; preds = %7
  %.0.add = add nsw i64 %.0.idx, -1
  %.ptr = getelementptr inbounds i8, ptr %0, i64 %.0.add
  %10 = load i8, ptr %.ptr, align 1, !tbaa !9
  %11 = icmp eq i8 %10, 58
  br i1 %11, label %12, label %7

12:                                               ; preds = %9
  %.ptr.le = getelementptr inbounds i8, ptr %0, i64 %.0.add
  %13 = getelementptr inbounds i8, ptr %.ptr.le, i64 -4
  %14 = load i8, ptr %13, align 1, !tbaa !9
  %15 = zext i8 %14 to i64
  %16 = getelementptr inbounds nuw [256 x i8], ptr @sane_ctype, i64 0, i64 %15
  %17 = load i8, ptr %16, align 1, !tbaa !9
  %18 = and i8 %17, 2
  %.not18 = icmp eq i8 %18, 0
  br i1 %.not18, label %.loopexit, label %19

19:                                               ; preds = %12
  %20 = getelementptr inbounds i8, ptr %.ptr.le, i64 -2
  %21 = load i8, ptr %20, align 1, !tbaa !9
  %22 = zext i8 %21 to i64
  %23 = getelementptr inbounds nuw [256 x i8], ptr @sane_ctype, i64 0, i64 %22
  %24 = load i8, ptr %23, align 1, !tbaa !9
  %25 = and i8 %24, 2
  %.not19 = icmp eq i8 %25, 0
  br i1 %.not19, label %.loopexit, label %26

26:                                               ; preds = %19
  %27 = getelementptr inbounds i8, ptr %.ptr.le, i64 -1
  %28 = load i8, ptr %27, align 1, !tbaa !9
  %29 = zext i8 %28 to i64
  %30 = getelementptr inbounds nuw [256 x i8], ptr @sane_ctype, i64 0, i64 %29
  %31 = load i8, ptr %30, align 1, !tbaa !9
  %32 = and i8 %31, 2
  %.not20 = icmp eq i8 %32, 0
  br i1 %.not20, label %.loopexit, label %33

33:                                               ; preds = %26
  %34 = getelementptr inbounds nuw i8, ptr %0, i64 %.0.idx
  %35 = load i8, ptr %34, align 1, !tbaa !9
  %36 = zext i8 %35 to i64
  %37 = getelementptr inbounds nuw [256 x i8], ptr @sane_ctype, i64 0, i64 %36
  %38 = load i8, ptr %37, align 1, !tbaa !9
  %39 = and i8 %38, 2
  %.not21 = icmp eq i8 %39, 0
  br i1 %.not21, label %.loopexit, label %40

40:                                               ; preds = %33
  %41 = getelementptr inbounds nuw i8, ptr %.ptr.le, i64 2
  %42 = load i8, ptr %41, align 1, !tbaa !9
  %43 = zext i8 %42 to i64
  %44 = getelementptr inbounds nuw [256 x i8], ptr @sane_ctype, i64 0, i64 %43
  %45 = load i8, ptr %44, align 1, !tbaa !9
  %46 = and i8 %45, 2
  %.not22 = icmp eq i8 %46, 0
  br i1 %.not22, label %.loopexit, label %47

47:                                               ; preds = %40
  %48 = getelementptr inbounds nuw i8, ptr %.ptr.le, i64 3
  %49 = tail call i64 @strtol(ptr noundef nonnull captures(none) %48, ptr noundef null, i32 noundef 10) #16
  %50 = icmp sgt i64 %49, 90
  %. = zext i1 %50 to i32
  br label %.loopexit

.loopexit:                                        ; preds = %7, %47, %12, %19, %26, %33, %40, %2, %4
  %.014 = phi i32 [ 0, %4 ], [ 0, %2 ], [ 0, %40 ], [ 0, %33 ], [ 0, %26 ], [ 0, %19 ], [ 0, %12 ], [ %., %47 ], [ 0, %7 ]
  ret i32 %.014
}